ccollections
Counter
p0
((dp1
F0.0
I261056
sF0.25
I1849
sF0.56
I291
sF0.5
I1637
sF1.0
I7496
sF0.11
I4234
sF0.49
I137
sF0.18
I1991
sF0.26
I902
sF0.72
I100
sF0.19
I1736
sF0.06
I9510
sF0.73
I155
sF0.53
I256
sF0.89
I146
sF0.75
I441
sF0.35
I528
sF0.15
I2376
sF0.24
I1188
sF0.52
I198
sF0.23
I1243
sF0.22
I1459
sF0.02
I35226
sF0.9
I114
sF0.47
I357
sF0.78
I139
sF0.68
I119
sF0.46
I289
sF0.16
I2106
sF0.86
I194
sF0.44
I488
sF0.27
I1025
sF0.91
I74
sF0.92
I128
sF0.57
I379
sF0.67
I757
sF0.77
I84
sF0.64
I182
sF0.4
I797
sF0.1
I4666
sF0.8
I283
sF0.45
I329
sF0.63
I326
sF0.39
I374
sF0.34
I384
sF0.96
I60
sF0.71
I243
sF0.38
I836
sF0.07
I7661
sF0.37
I419
sF0.6
I450
sF0.69
I147
sF0.04
I15663
sF0.61
I131
sF0.97
I44
sF0.82
I123
sF0.29
I1157
sF0.7
I156
sF0.95
I76
sF0.42
I443
sF0.94
I80
sF0.17
I2636
sF0.83
I225
sF0.08
I6439
sF0.33
I1718
sF0.41
I381
sF0.12
I3195
sF0.31
I764
sF0.09
I5029
sF0.01
I76923
sF0.93
I99
sF0.21
I1637
sF0.51
I125
sF0.81
I89
sF0.87
I67
sF0.59
I183
sF0.36
I604
sF0.54
I227
sF0.3
I865
sF0.85
I92
sF0.55
I214
sF0.03
I21989
sF0.48
I282
sF0.58
I233
sF0.84
I59
sF0.98
I25
sF0.88
I163
sF0.14
I3202
sF0.65
I156
sF0.43
I580
sF0.66
I73
sF0.28
I715
sF0.79
I102
sF0.05
I11814
sF0.32
I637
sF0.99
I9
sF0.76
I99
sF0.13
I3840
sF0.62
I168
sF0.2
I2173
sF0.74
I86
stp2
Rp3
.